; Function Attrs: nounwind uwtable
define internal i64 @pac_time_until_deferred_work(ptr noundef %0, ptr noundef %1) #0 {
  %3 = getelementptr inbounds nuw i8, ptr %1, i64 58648
  %4 = getelementptr inbounds nuw i8, ptr %1, i64 168
  %5 = tail call i64 @je_eset_npages_get(ptr noundef nonnull %4) #9
  %6 = getelementptr inbounds nuw i8, ptr %1, i64 9824
  %7 = tail call i64 @je_eset_npages_get(ptr noundef nonnull %6) #9
  %8 = add i64 %7, %5
  %9 = getelementptr inbounds nuw i8, ptr %1, i64 58712
  %10 = tail call i32 @pthread_mutex_trylock(ptr noundef nonnull %9) #9
  %.not.i = icmp eq i32 %10, 0
  br i1 %.not.i, label %11, label %pac_ns_until_purge.exit.thread

11:                                               ; preds = %2
  %12 = getelementptr inbounds nuw i8, ptr %1, i64 58704
  %13 = load i64, ptr %12, align 8, !tbaa !52
  %14 = add i64 %13, 1
  store i64 %14, ptr %12, align 8, !tbaa !52
  %15 = getelementptr inbounds nuw i8, ptr %1, i64 58696
  %16 = load ptr, ptr %15, align 8, !tbaa !56
  %.not.i.i.i = icmp eq ptr %16, %0
  br i1 %.not.i.i.i, label %pac_ns_until_purge.exit, label %17

17:                                               ; preds = %11
  store ptr %0, ptr %15, align 8, !tbaa !56
  %18 = getelementptr inbounds nuw i8, ptr %1, i64 58688
  %19 = load i64, ptr %18, align 8, !tbaa !57
  %20 = add i64 %19, 1
  store i64 %20, ptr %18, align 8, !tbaa !57
  br label %pac_ns_until_purge.exit

pac_ns_until_purge.exit.thread:                   ; preds = %2
  %21 = getelementptr inbounds nuw i8, ptr %1, i64 58752
  store atomic i8 1, ptr %21 monotonic, align 1
  br label %50

pac_ns_until_purge.exit:                          ; preds = %11, %17
  %22 = tail call i64 @je_decay_ns_until_purge(ptr noundef nonnull %3, i64 noundef %8, i64 noundef 1024) #9
  %23 = getelementptr inbounds nuw i8, ptr %1, i64 58752
  store atomic i8 0, ptr %23 monotonic, align 1
  %24 = tail call i32 @pthread_mutex_unlock(ptr noundef nonnull %9) #9
  %25 = icmp eq i64 %22, 0
  br i1 %25, label %50, label %26

26:                                               ; preds = %pac_ns_until_purge.exit
  %27 = getelementptr inbounds nuw i8, ptr %1, i64 60432
  %28 = getelementptr inbounds nuw i8, ptr %1, i64 19608
  %29 = tail call i64 @je_eset_npages_get(ptr noundef nonnull %28) #9
  %30 = getelementptr inbounds nuw i8, ptr %1, i64 29264
  %31 = tail call i64 @je_eset_npages_get(ptr noundef nonnull %30) #9
  %32 = add i64 %31, %29
  %33 = getelementptr inbounds nuw i8, ptr %1, i64 60496
  %34 = tail call i32 @pthread_mutex_trylock(ptr noundef nonnull %33) #9
  %.not.i16 = icmp eq i32 %34, 0
  br i1 %.not.i16, label %35, label %malloc_mutex_trylock.exit.i17

35:                                               ; preds = %26
  %36 = getelementptr inbounds nuw i8, ptr %1, i64 60488
  %37 = load i64, ptr %36, align 8, !tbaa !52
  %38 = add i64 %37, 1
  store i64 %38, ptr %36, align 8, !tbaa !52
  %39 = getelementptr inbounds nuw i8, ptr %1, i64 60480
  %40 = load ptr, ptr %39, align 8, !tbaa !56
  %.not.i.i.i19 = icmp eq ptr %40, %0
  br i1 %.not.i.i.i19, label %46, label %41

41:                                               ; preds = %35
  store ptr %0, ptr %39, align 8, !tbaa !56
  %42 = getelementptr inbounds nuw i8, ptr %1, i64 60472
  %43 = load i64, ptr %42, align 8, !tbaa !57
  %44 = add i64 %43, 1
  store i64 %44, ptr %42, align 8, !tbaa !57
  br label %46

malloc_mutex_trylock.exit.i17:                    ; preds = %26
  %45 = getelementptr inbounds nuw i8, ptr %1, i64 60536
  store atomic i8 1, ptr %45 monotonic, align 1
  br label %pac_ns_until_purge.exit20

46:                                               ; preds = %41, %35
  %47 = tail call i64 @je_decay_ns_until_purge(ptr noundef nonnull %27, i64 noundef %32, i64 noundef 1024) #9
  %48 = getelementptr inbounds nuw i8, ptr %1, i64 60536
  store atomic i8 0, ptr %48 monotonic, align 1
  %49 = tail call i32 @pthread_mutex_unlock(ptr noundef nonnull %33) #9
  br label %pac_ns_until_purge.exit20

pac_ns_until_purge.exit20:                        ; preds = %malloc_mutex_trylock.exit.i17, %46
  %.0.i18 = phi i64 [ %47, %46 ], [ 0, %malloc_mutex_trylock.exit.i17 ]
  %spec.select = tail call i64 @llvm.umin.i64(i64 %.0.i18, i64 %22)
  br label %50

50:                                               ; preds = %pac_ns_until_purge.exit.thread, %pac_ns_until_purge.exit, %pac_ns_until_purge.exit20
  %.0 = phi i64 [ %spec.select, %pac_ns_until_purge.exit20 ], [ 0, %pac_ns_until_purge.exit ], [ 0, %pac_ns_until_purge.exit.thread ]
  ret i64 %.0
}